target datalayout = "e-m:e-p270:32:32-p271:32:32-p272:64:64-i64:64-i128:128-f80:128-n8:16:32:64-S128"
target triple = "x86_64-pc-linux-gnu"

%struct.string_list = type { ptr, i64, i64, i8, ptr }
%struct.string_list_item = type { ptr, ptr }

; Function Attrs: nounwind uwtable
define dso_local ptr @unsorted_string_list_lookup(ptr noundef %0, ptr noundef %1) #0 {
  %3 = alloca ptr, align 8
  %4 = alloca ptr, align 8
  %5 = alloca ptr, align 8
  %6 = alloca ptr, align 8
  %7 = alloca ptr, align 8
  %8 = alloca i32, align 4
  store ptr %0, ptr %4, align 8, !tbaa !4
  store ptr %1, ptr %5, align 8, !tbaa !9
  call void @llvm.lifetime.start.p0(i64 8, ptr %6) #9
  call void @llvm.lifetime.start.p0(i64 8, ptr %7) #9
  %9 = load ptr, ptr %4, align 8, !tbaa !4
  %10 = getelementptr inbounds nuw %struct.string_list, ptr %9, i32 0, i32 4
  %11 = load ptr, ptr %10, align 8, !tbaa !24
  %12 = icmp ne ptr %11, null
  br i1 %12, label %13, label %17

13:                                               ; preds = %2
  %14 = load ptr, ptr %4, align 8, !tbaa !4
  %15 = getelementptr inbounds nuw %struct.string_list, ptr %14, i32 0, i32 4
  %16 = load ptr, ptr %15, align 8, !tbaa !24
  br label %18

17:                                               ; preds = %2
  br label %18

18:                                               ; preds = %17, %13
  %19 = phi ptr [ %16, %13 ], [ @strcmp, %17 ]
  store ptr %19, ptr %7, align 8, !tbaa !25
  %20 = load ptr, ptr %4, align 8, !tbaa !4
  %21 = getelementptr inbounds nuw %struct.string_list, ptr %20, i32 0, i32 0
  %22 = load ptr, ptr %21, align 8, !tbaa !13
  store ptr %22, ptr %6, align 8, !tbaa !33
  br label %23

23:                                               ; preds = %49, %18
  %24 = load ptr, ptr %6, align 8, !tbaa !33
  %25 = icmp ne ptr %24, null
  br i1 %25, label %26, label %36

26:                                               ; preds = %23
  %27 = load ptr, ptr %6, align 8, !tbaa !33
  %28 = load ptr, ptr %4, align 8, !tbaa !4
  %29 = getelementptr inbounds nuw %struct.string_list, ptr %28, i32 0, i32 0
  %30 = load ptr, ptr %29, align 8, !tbaa !13
  %31 = load ptr, ptr %4, align 8, !tbaa !4
  %32 = getelementptr inbounds nuw %struct.string_list, ptr %31, i32 0, i32 1
  %33 = load i64, ptr %32, align 8, !tbaa !17
  %34 = getelementptr inbounds nuw %struct.string_list_item, ptr %30, i64 %33
  %35 = icmp ult ptr %27, %34
  br label %36

36:                                               ; preds = %26, %23
  %37 = phi i1 [ false, %23 ], [ %35, %26 ]
  br i1 %37, label %38, label %52

38:                                               ; preds = %36
  %39 = load ptr, ptr %7, align 8, !tbaa !25
  %40 = load ptr, ptr %5, align 8, !tbaa !9
  %41 = load ptr, ptr %6, align 8, !tbaa !33
  %42 = getelementptr inbounds nuw %struct.string_list_item, ptr %41, i32 0, i32 0
  %43 = load ptr, ptr %42, align 8, !tbaa !19
  %44 = call i32 %39(ptr noundef %40, ptr noundef %43)
  %45 = icmp ne i32 %44, 0
  br i1 %45, label %48, label %46

46:                                               ; preds = %38
  %47 = load ptr, ptr %6, align 8, !tbaa !33
  store ptr %47, ptr %3, align 8
  store i32 1, ptr %8, align 4
  br label %53

48:                                               ; preds = %38
  br label %49

49:                                               ; preds = %48
  %50 = load ptr, ptr %6, align 8, !tbaa !33
  %51 = getelementptr inbounds nuw %struct.string_list_item, ptr %50, i32 1
  store ptr %51, ptr %6, align 8, !tbaa !33
  br label %23, !llvm.loop !43

52:                                               ; preds = %36
  store ptr null, ptr %3, align 8
  store i32 1, ptr %8, align 4
  br label %53

53:                                               ; preds = %52, %46
  call void @llvm.lifetime.end.p0(i64 8, ptr %7) #9
  call void @llvm.lifetime.end.p0(i64 8, ptr %6) #9
  %54 = load ptr, ptr %3, align 8
  ret ptr %54
}

; Function Attrs: nounwind uwtable
define dso_local i32 @unsorted_string_list_has_string(ptr noundef %0, ptr noundef %1) #0 {
  %3 = alloca ptr, align 8
  %4 = alloca ptr, align 8
  store ptr %0, ptr %3, align 8, !tbaa !4
  store ptr %1, ptr %4, align 8, !tbaa !9
  %5 = load ptr, ptr %3, align 8, !tbaa !4
  %6 = load ptr, ptr %4, align 8, !tbaa !9
  %7 = call ptr @unsorted_string_list_lookup(ptr noundef %5, ptr noundef %6)
  %8 = icmp ne ptr %7, null
  %9 = zext i1 %8 to i32
  ret i32 %9
}