; Function Attrs: nounwind uwtable
define dso_local range(i32 0, 2) i32 @unsorted_string_list_has_string(ptr noundef readonly captures(none) %0, ptr noundef %1) local_unnamed_addr #4 {
  %3 = getelementptr inbounds nuw i8, ptr %0, i64 32
  %4 = load ptr, ptr %3, align 8, !tbaa !12
  %.not.i = icmp eq ptr %4, null
  %spec.select.i = select i1 %.not.i, ptr @strcmp, ptr %4
  %5 = load ptr, ptr %0, align 8, !tbaa !13
  %.not1517.i = icmp eq ptr %5, null
  br i1 %.not1517.i, label %unsorted_string_list_lookup.exit, label %.lr.ph.i

.lr.ph.i:                                         ; preds = %2
  %6 = getelementptr inbounds nuw i8, ptr %0, i64 8
  %7 = load i64, ptr %6, align 8, !tbaa !4
  %.not = icmp eq i64 %7, 0
  br i1 %.not, label %unsorted_string_list_lookup.exit, label %.lr.ph

8:                                                ; preds = %.lr.ph
  %9 = getelementptr inbounds nuw i8, ptr %.01318.i2, i64 16
  %10 = load ptr, ptr %0, align 8, !tbaa !13
  %11 = load i64, ptr %6, align 8, !tbaa !4
  %12 = getelementptr inbounds nuw %struct.string_list_item, ptr %10, i64 %11
  %13 = icmp ult ptr %9, %12
  br i1 %13, label %.lr.ph, label %unsorted_string_list_lookup.exit

.lr.ph:                                           ; preds = %.lr.ph.i, %8
  %.01318.i2 = phi ptr [ %9, %8 ], [ %5, %.lr.ph.i ]
  %14 = load ptr, ptr %.01318.i2, align 8, !tbaa !14
  %15 = tail call i32 %spec.select.i(ptr noundef %1, ptr noundef %14) #11
  %.not16.i = icmp eq i32 %15, 0
  br i1 %.not16.i, label %unsorted_string_list_lookup.exit, label %8

unsorted_string_list_lookup.exit:                 ; preds = %.lr.ph, %8, %.lr.ph.i, %2
  %.0.i = phi i32 [ 0, %2 ], [ 0, %.lr.ph.i ], [ 1, %.lr.ph ], [ 0, %8 ]
  ret i32 %.0.i
}